target datalayout = "e-m:e-p270:32:32-p271:32:32-p272:64:64-i64:64-i128:128-f80:128-n8:16:32:64-S128"
target triple = "x86_64-pc-linux-gnu"

%struct.Vec_Int_t_ = type { i32, i32, ptr }

@.str = private unnamed_addr constant [39 x i8] c"Cannot constrain an incomplete state.\0A\00", align 1
@.str.1 = private unnamed_addr constant [63 x i8] c"SAT solver became UNSAT after adding a uniqueness constraint.\0A\00", align 1

; Function Attrs: inlinehint nounwind uwtable
define internal i32 @toLitCond(i32 noundef %0, i32 noundef %1) #2 {
  %3 = alloca i32, align 4
  %4 = alloca i32, align 4
  store i32 %0, ptr %3, align 4, !tbaa !10
  store i32 %1, ptr %4, align 4, !tbaa !10
  %5 = load i32, ptr %3, align 4, !tbaa !10
  %6 = load i32, ptr %3, align 4, !tbaa !10
  %7 = add nsw i32 %5, %6
  %8 = load i32, ptr %4, align 4, !tbaa !10
  %9 = icmp ne i32 %8, 0
  %10 = zext i1 %9 to i32
  %11 = add nsw i32 %7, %10
  ret i32 %11
}

; Function Attrs: inlinehint nounwind uwtable
define internal ptr @Vec_IntArray(ptr noundef %0) #2 {
  %2 = alloca ptr, align 8
  store ptr %0, ptr %2, align 8, !tbaa !8
  %3 = load ptr, ptr %2, align 8, !tbaa !8
  %4 = getelementptr inbounds nuw %struct.Vec_Int_t_, ptr %3, i32 0, i32 2
  %5 = load ptr, ptr %4, align 8, !tbaa !17
  ret ptr %5
}

; Function Attrs: nounwind uwtable
define i32 @Saig_ManAddUniqueness(ptr noundef %0, ptr noundef %1, i32 noundef %2, i32 noundef %3, i32 noundef %4, ptr noundef %5, ptr noundef %6, i32 noundef %7) #0 {
  %9 = alloca i32, align 4
  %10 = alloca ptr, align 8
  %11 = alloca ptr, align 8
  %12 = alloca i32, align 4
  %13 = alloca i32, align 4
  %14 = alloca i32, align 4
  %15 = alloca ptr, align 8
  %16 = alloca ptr, align 8
  %17 = alloca i32, align 4
  %18 = alloca ptr, align 8
  %19 = alloca ptr, align 8
  %20 = alloca i32, align 4
  %21 = alloca i32, align 4
  %22 = alloca i32, align 4
  %23 = alloca i32, align 4
  %24 = alloca ptr, align 8
  %25 = alloca i32, align 4
  store ptr %0, ptr %10, align 8, !tbaa !3
  store ptr %1, ptr %11, align 8, !tbaa !8
  store i32 %2, ptr %12, align 4, !tbaa !10
  store i32 %3, ptr %13, align 4, !tbaa !10
  store i32 %4, ptr %14, align 4, !tbaa !10
  store ptr %5, ptr %15, align 8, !tbaa !12
  store ptr %6, ptr %16, align 8, !tbaa !12
  store i32 %7, ptr %17, align 4, !tbaa !10
  call void @llvm.lifetime.start.p0(i64 8, ptr %18) #10
  %26 = load ptr, ptr %11, align 8, !tbaa !8
  %27 = call ptr @Vec_IntArray(ptr noundef %26)
  %28 = load i32, ptr %12, align 4, !tbaa !10
  %29 = load i32, ptr %13, align 4, !tbaa !10
  %30 = mul nsw i32 %28, %29
  %31 = sext i32 %30 to i64
  %32 = getelementptr inbounds i32, ptr %27, i64 %31
  store ptr %32, ptr %18, align 8, !tbaa !12
  call void @llvm.lifetime.start.p0(i64 8, ptr %19) #10
  %33 = load ptr, ptr %11, align 8, !tbaa !8
  %34 = call ptr @Vec_IntArray(ptr noundef %33)
  %35 = load i32, ptr %12, align 4, !tbaa !10
  %36 = load i32, ptr %14, align 4, !tbaa !10
  %37 = mul nsw i32 %35, %36
  %38 = sext i32 %37 to i64
  %39 = getelementptr inbounds i32, ptr %34, i64 %38
  store ptr %39, ptr %19, align 8, !tbaa !12
  call void @llvm.lifetime.start.p0(i64 4, ptr %20) #10
  call void @llvm.lifetime.start.p0(i64 4, ptr %21) #10
  call void @llvm.lifetime.start.p0(i64 4, ptr %22) #10
  call void @llvm.lifetime.start.p0(i64 4, ptr %23) #10
  call void @llvm.lifetime.start.p0(i64 8, ptr %24) #10
  store i32 0, ptr %20, align 4, !tbaa !10
  br label %40

40:                                               ; preds = %65, %8
  %41 = load i32, ptr %20, align 4, !tbaa !10
  %42 = load i32, ptr %12, align 4, !tbaa !10
  %43 = icmp slt i32 %41, %42
  br i1 %43, label %44, label %68

44:                                               ; preds = %40
  %45 = load ptr, ptr %18, align 8, !tbaa !12
  %46 = load i32, ptr %20, align 4, !tbaa !10
  %47 = sext i32 %46 to i64
  %48 = getelementptr inbounds i32, ptr %45, i64 %47
  %49 = load i32, ptr %48, align 4, !tbaa !10
  %50 = icmp sge i32 %49, 0
  br i1 %50, label %51, label %64

51:                                               ; preds = %44
  %52 = load ptr, ptr %19, align 8, !tbaa !12
  %53 = load i32, ptr %20, align 4, !tbaa !10
  %54 = sext i32 %53 to i64
  %55 = getelementptr inbounds i32, ptr %52, i64 %54
  %56 = load i32, ptr %55, align 4, !tbaa !10
  %57 = icmp eq i32 %56, -1
  br i1 %57, label %58, label %64

58:                                               ; preds = %51
  %59 = load i32, ptr %17, align 4, !tbaa !10
  %60 = icmp ne i32 %59, 0
  br i1 %60, label %61, label %63

61:                                               ; preds = %58
  %62 = call i32 (ptr, ...) @printf(ptr noundef @.str)
  br label %63

63:                                               ; preds = %61, %58
  store i32 0, ptr %9, align 4
  store i32 1, ptr %25, align 4
  br label %162

64:                                               ; preds = %51, %44
  br label %65

65:                                               ; preds = %64
  %66 = load i32, ptr %20, align 4, !tbaa !10
  %67 = add nsw i32 %66, 1
  store i32 %67, ptr %20, align 4, !tbaa !10
  br label %40, !llvm.loop !33

68:                                               ; preds = %40
  %69 = load ptr, ptr %15, align 8, !tbaa !12
  %70 = load i32, ptr %69, align 4, !tbaa !10
  store i32 %70, ptr %22, align 4, !tbaa !10
  store i32 0, ptr %20, align 4, !tbaa !10
  br label %71

71:                                               ; preds = %111, %68
  %72 = load i32, ptr %20, align 4, !tbaa !10
  %73 = load i32, ptr %12, align 4, !tbaa !10
  %74 = icmp slt i32 %72, %73
  br i1 %74, label %75, label %114

75:                                               ; preds = %71
  %76 = load ptr, ptr %18, align 8, !tbaa !12
  %77 = load i32, ptr %20, align 4, !tbaa !10
  %78 = sext i32 %77 to i64
  %79 = getelementptr inbounds i32, ptr %76, i64 %78
  %80 = load i32, ptr %79, align 4, !tbaa !10
  %81 = icmp sge i32 %80, 0
  br i1 %81, label %82, label %110

82:                                               ; preds = %75
  %83 = load ptr, ptr %16, align 8, !tbaa !12
  %84 = load i32, ptr %83, align 4, !tbaa !10
  %85 = add nsw i32 %84, 4
  store i32 %85, ptr %83, align 4, !tbaa !10
  %86 = load ptr, ptr %10, align 8, !tbaa !3
  %87 = load ptr, ptr %18, align 8, !tbaa !12
  %88 = load i32, ptr %20, align 4, !tbaa !10
  %89 = sext i32 %88 to i64
  %90 = getelementptr inbounds i32, ptr %87, i64 %89
  %91 = load i32, ptr %90, align 4, !tbaa !10
  %92 = load ptr, ptr %19, align 8, !tbaa !12
  %93 = load i32, ptr %20, align 4, !tbaa !10
  %94 = sext i32 %93 to i64
  %95 = getelementptr inbounds i32, ptr %92, i64 %94
  %96 = load i32, ptr %95, align 4, !tbaa !10
  %97 = load ptr, ptr %15, align 8, !tbaa !12
  %98 = load i32, ptr %97, align 4, !tbaa !10
  %99 = add nsw i32 %98, 1
  store i32 %99, ptr %97, align 4, !tbaa !10
  %100 = call i32 @Cnf_DataAddXorClause(ptr noundef %86, i32 noundef %91, i32 noundef %96, i32 noundef %98)
  store i32 %100, ptr %23, align 4, !tbaa !10
  %101 = load i32, ptr %23, align 4, !tbaa !10
  %102 = icmp eq i32 %101, 0
  br i1 %102, label %103, label %109

103:                                              ; preds = %82
  %104 = load i32, ptr %17, align 4, !tbaa !10
  %105 = icmp ne i32 %104, 0
  br i1 %105, label %106, label %108

106:                                              ; preds = %103
  %107 = call i32 (ptr, ...) @printf(ptr noundef @.str.1)
  br label %108

108:                                              ; preds = %106, %103
  store i32 1, ptr %9, align 4
  store i32 1, ptr %25, align 4
  br label %162

109:                                              ; preds = %82
  br label %110

110:                                              ; preds = %109, %75
  br label %111

111:                                              ; preds = %110
  %112 = load i32, ptr %20, align 4, !tbaa !10
  %113 = add nsw i32 %112, 1
  store i32 %113, ptr %20, align 4, !tbaa !10
  br label %71, !llvm.loop !34

114:                                              ; preds = %71
  %115 = load ptr, ptr %16, align 8, !tbaa !12
  %116 = load i32, ptr %115, align 4, !tbaa !10
  %117 = add nsw i32 %116, 1
  store i32 %117, ptr %115, align 4, !tbaa !10
  store i32 0, ptr %21, align 4, !tbaa !10
  %118 = load i32, ptr %12, align 4, !tbaa !10
  %119 = sext i32 %118 to i64
  %120 = mul i64 4, %119
  %121 = call noalias ptr @malloc(i64 noundef %120) #11
  store ptr %121, ptr %24, align 8, !tbaa !12
  %122 = load i32, ptr %22, align 4, !tbaa !10
  store i32 %122, ptr %20, align 4, !tbaa !10
  br label %123

123:                                              ; preds = %136, %114
  %124 = load i32, ptr %20, align 4, !tbaa !10
  %125 = load ptr, ptr %15, align 8, !tbaa !12
  %126 = load i32, ptr %125, align 4, !tbaa !10
  %127 = icmp slt i32 %124, %126
  br i1 %127, label %128, label %139

128:                                              ; preds = %123
  %129 = load i32, ptr %20, align 4, !tbaa !10
  %130 = call i32 @toLitCond(i32 noundef %129, i32 noundef 0)
  %131 = load ptr, ptr %24, align 8, !tbaa !12
  %132 = load i32, ptr %21, align 4, !tbaa !10
  %133 = add nsw i32 %132, 1
  store i32 %133, ptr %21, align 4, !tbaa !10
  %134 = sext i32 %132 to i64
  %135 = getelementptr inbounds i32, ptr %131, i64 %134
  store i32 %130, ptr %135, align 4, !tbaa !10
  br label %136

136:                                              ; preds = %128
  %137 = load i32, ptr %20, align 4, !tbaa !10
  %138 = add nsw i32 %137, 1
  store i32 %138, ptr %20, align 4, !tbaa !10
  br label %123, !llvm.loop !35

139:                                              ; preds = %123
  %140 = load ptr, ptr %10, align 8, !tbaa !3
  %141 = load ptr, ptr %24, align 8, !tbaa !12
  %142 = load ptr, ptr %24, align 8, !tbaa !12
  %143 = load i32, ptr %21, align 4, !tbaa !10
  %144 = sext i32 %143 to i64
  %145 = getelementptr inbounds i32, ptr %142, i64 %144
  %146 = call i32 @sat_solver_addclause(ptr noundef %140, ptr noundef %141, ptr noundef %145)
  store i32 %146, ptr %23, align 4, !tbaa !10
  %147 = load ptr, ptr %24, align 8, !tbaa !12
  %148 = icmp ne ptr %147, null
  br i1 %148, label %149, label %151

149:                                              ; preds = %139
  %150 = load ptr, ptr %24, align 8, !tbaa !12
  call void @free(ptr noundef %150) #10
  store ptr null, ptr %24, align 8, !tbaa !12
  br label %152

151:                                              ; preds = %139
  br label %152

152:                                              ; preds = %151, %149
  %153 = load i32, ptr %23, align 4, !tbaa !10
  %154 = icmp eq i32 %153, 0
  br i1 %154, label %155, label %161

155:                                              ; preds = %152
  %156 = load i32, ptr %17, align 4, !tbaa !10
  %157 = icmp ne i32 %156, 0
  br i1 %157, label %158, label %160

158:                                              ; preds = %155
  %159 = call i32 (ptr, ...) @printf(ptr noundef @.str.1)
  br label %160

160:                                              ; preds = %158, %155
  store i32 1, ptr %9, align 4
  store i32 1, ptr %25, align 4
  br label %162

161:                                              ; preds = %152
  store i32 0, ptr %9, align 4
  store i32 1, ptr %25, align 4
  br label %162

162:                                              ; preds = %161, %160, %108, %63
  call void @llvm.lifetime.end.p0(i64 8, ptr %24) #10
  call void @llvm.lifetime.end.p0(i64 4, ptr %23) #10
  call void @llvm.lifetime.end.p0(i64 4, ptr %22) #10
  call void @llvm.lifetime.end.p0(i64 4, ptr %21) #10
  call void @llvm.lifetime.end.p0(i64 4, ptr %20) #10
  call void @llvm.lifetime.end.p0(i64 8, ptr %19) #10
  call void @llvm.lifetime.end.p0(i64 8, ptr %18) #10
  %163 = load i32, ptr %9, align 4
  ret i32 %163
}