; Function Attrs: nounwind uwtable
define range(i32 0, 2) i32 @Saig_ManAddUniqueness(ptr noundef %0, ptr noundef readonly captures(none) %1, i32 noundef %2, i32 noundef %3, i32 noundef %4, ptr noundef captures(none) %5, ptr noundef captures(none) %6, i32 noundef %7) local_unnamed_addr #2 {
  %9 = getelementptr i8, ptr %1, i64 8
  %.val55 = load ptr, ptr %9, align 8, !tbaa !3
  %10 = mul nsw i32 %3, %2
  %11 = sext i32 %10 to i64
  %12 = getelementptr inbounds i32, ptr %.val55, i64 %11
  %13 = mul nsw i32 %4, %2
  %14 = sext i32 %13 to i64
  %15 = getelementptr inbounds i32, ptr %.val55, i64 %14
  %16 = icmp sgt i32 %2, 0
  br i1 %16, label %.lr.ph.preheader, label %._crit_edge.thread

._crit_edge.thread:                               ; preds = %8
  %17 = load i32, ptr %5, align 4, !tbaa !10
  br label %._crit_edge60

.lr.ph.preheader:                                 ; preds = %8
  %wide.trip.count = zext nneg i32 %2 to i64
  br label %.lr.ph

.lr.ph:                                           ; preds = %.lr.ph.preheader, %26
  %indvars.iv = phi i64 [ 0, %.lr.ph.preheader ], [ %indvars.iv.next, %26 ]
  %18 = getelementptr inbounds nuw i32, ptr %12, i64 %indvars.iv
  %19 = load i32, ptr %18, align 4, !tbaa !10
  %20 = icmp sgt i32 %19, -1
  br i1 %20, label %21, label %26

21:                                               ; preds = %.lr.ph
  %22 = getelementptr inbounds nuw i32, ptr %15, i64 %indvars.iv
  %23 = load i32, ptr %22, align 4, !tbaa !10
  %24 = icmp eq i32 %23, -1
  br i1 %24, label %25, label %26

25:                                               ; preds = %21
  %.not53 = icmp eq i32 %7, 0
  br i1 %.not53, label %65, label %.sink.split

26:                                               ; preds = %.lr.ph, %21
  %indvars.iv.next = add nuw nsw i64 %indvars.iv, 1
  %exitcond.not = icmp eq i64 %indvars.iv.next, %wide.trip.count
  br i1 %exitcond.not, label %._crit_edge, label %.lr.ph, !llvm.loop !28

._crit_edge:                                      ; preds = %26
  %27 = load i32, ptr %5, align 4, !tbaa !10
  %wide.trip.count70 = zext nneg i32 %2 to i64
  br label %.lr.ph59

.lr.ph59:                                         ; preds = %._crit_edge, %42
  %indvars.iv67 = phi i64 [ 0, %._crit_edge ], [ %indvars.iv.next68, %42 ]
  %28 = getelementptr inbounds nuw i32, ptr %12, i64 %indvars.iv67
  %29 = load i32, ptr %28, align 4, !tbaa !10
  %30 = icmp sgt i32 %29, -1
  br i1 %30, label %31, label %42

31:                                               ; preds = %.lr.ph59
  %32 = load i32, ptr %6, align 4, !tbaa !10
  %33 = add nsw i32 %32, 4
  store i32 %33, ptr %6, align 4, !tbaa !10
  %34 = load i32, ptr %28, align 4, !tbaa !10
  %35 = getelementptr inbounds nuw i32, ptr %15, i64 %indvars.iv67
  %36 = load i32, ptr %35, align 4, !tbaa !10
  %37 = load i32, ptr %5, align 4, !tbaa !10
  %38 = add nsw i32 %37, 1
  store i32 %38, ptr %5, align 4, !tbaa !10
  %39 = tail call i32 @Cnf_DataAddXorClause(ptr noundef %0, i32 noundef %34, i32 noundef %36, i32 noundef %37) #15
  %40 = icmp eq i32 %39, 0
  br i1 %40, label %41, label %42

41:                                               ; preds = %31
  %.not51 = icmp eq i32 %7, 0
  br i1 %.not51, label %65, label %.sink.split

42:                                               ; preds = %.lr.ph59, %31
  %indvars.iv.next68 = add nuw nsw i64 %indvars.iv67, 1
  %exitcond71.not = icmp eq i64 %indvars.iv.next68, %wide.trip.count70
  br i1 %exitcond71.not, label %._crit_edge60, label %.lr.ph59, !llvm.loop !29

._crit_edge60:                                    ; preds = %42, %._crit_edge.thread
  %43 = phi i32 [ %17, %._crit_edge.thread ], [ %27, %42 ]
  %44 = load i32, ptr %6, align 4, !tbaa !10
  %45 = add nsw i32 %44, 1
  store i32 %45, ptr %6, align 4, !tbaa !10
  %46 = sext i32 %2 to i64
  %47 = shl nsw i64 %46, 2
  %48 = tail call noalias ptr @malloc(i64 noundef %47) #16
  %49 = load i32, ptr %5, align 4, !tbaa !10
  %50 = icmp slt i32 %43, %49
  br i1 %50, label %.lr.ph64.preheader, label %._crit_edge65

.lr.ph64.preheader:                               ; preds = %._crit_edge60
  %51 = sub i32 %49, %43
  %wide.trip.count75 = zext i32 %51 to i64
  br label %.lr.ph64

.lr.ph64:                                         ; preds = %.lr.ph64.preheader, %.lr.ph64
  %indvars.iv72 = phi i64 [ 0, %.lr.ph64.preheader ], [ %indvars.iv.next73, %.lr.ph64 ]
  %.261 = phi i32 [ %43, %.lr.ph64.preheader ], [ %54, %.lr.ph64 ]
  %52 = shl nsw i32 %.261, 1
  %indvars.iv.next73 = add nuw nsw i64 %indvars.iv72, 1
  %53 = getelementptr inbounds nuw i32, ptr %48, i64 %indvars.iv72
  store i32 %52, ptr %53, align 4, !tbaa !10
  %54 = add nsw i32 %.261, 1
  %exitcond76.not = icmp eq i64 %indvars.iv.next73, %wide.trip.count75
  br i1 %exitcond76.not, label %._crit_edge65.thread, label %.lr.ph64, !llvm.loop !30

._crit_edge65.thread:                             ; preds = %.lr.ph64
  %55 = zext nneg i32 %51 to i64
  %56 = getelementptr inbounds nuw i32, ptr %48, i64 %55
  %57 = tail call i32 @sat_solver_addclause(ptr noundef %0, ptr noundef nonnull %48, ptr noundef %56) #15
  br label %59

._crit_edge65:                                    ; preds = %._crit_edge60
  %58 = tail call i32 @sat_solver_addclause(ptr noundef %0, ptr noundef %48, ptr noundef %48) #15
  %.not = icmp eq ptr %48, null
  br i1 %.not, label %61, label %59

59:                                               ; preds = %._crit_edge65.thread, %._crit_edge65
  %60 = phi i32 [ %57, %._crit_edge65.thread ], [ %58, %._crit_edge65 ]
  tail call void @free(ptr noundef nonnull %48) #15
  br label %61

61:                                               ; preds = %._crit_edge65, %59
  %62 = phi i32 [ %58, %._crit_edge65 ], [ %60, %59 ]
  %63 = icmp eq i32 %62, 0
  br i1 %63, label %64, label %65

64:                                               ; preds = %61
  %.not50 = icmp eq i32 %7, 0
  br i1 %.not50, label %65, label %.sink.split

.sink.split:                                      ; preds = %64, %41, %25
  %str.sink = phi ptr [ @str.2, %25 ], [ @str.1, %41 ], [ @str.1, %64 ]
  %.0.ph = phi i32 [ 0, %25 ], [ 1, %41 ], [ 1, %64 ]
  %puts = tail call i32 @puts(ptr nonnull dereferenceable(1) %str.sink)
  br label %65

65:                                               ; preds = %.sink.split, %61, %64, %41, %25
  %.0 = phi i32 [ 0, %25 ], [ 1, %41 ], [ 1, %64 ], [ 0, %61 ], [ %.0.ph, %.sink.split ]
  ret i32 %.0
}